target datalayout = "e-m:e-p270:32:32-p271:32:32-p272:64:64-i64:64-i128:128-f80:128-n8:16:32:64-S128"
target triple = "x86_64-pc-linux-gnu"

@.str.25 = private unnamed_addr constant [8 x i8] c"path:%s\00", align 1

; Function Attrs: nounwind uwtable
define dso_local void @prte_info_show_path(ptr noundef %0, ptr noundef %1) #0 {
  %3 = alloca ptr, align 8
  %4 = alloca ptr, align 8
  %5 = alloca ptr, align 8
  %6 = alloca ptr, align 8
  %7 = alloca i32, align 4
  %8 = alloca i32, align 4
  store ptr %0, ptr %3, align 8, !tbaa !23
  store ptr %1, ptr %4, align 8, !tbaa !23
  call void @llvm.lifetime.start.p0(i64 8, ptr %5) #9
  call void @llvm.lifetime.start.p0(i64 8, ptr %6) #9
  %9 = load ptr, ptr %3, align 8, !tbaa !23
  %10 = call noalias ptr @strdup(ptr noundef %9) #9
  store ptr %10, ptr %5, align 8, !tbaa !23
  call void @llvm.lifetime.start.p0(i64 4, ptr %7) #9
  %11 = call ptr @__ctype_toupper_loc() #12
  %12 = load ptr, ptr %11, align 8, !tbaa !47
  %13 = load ptr, ptr %5, align 8, !tbaa !23
  %14 = getelementptr inbounds i8, ptr %13, i64 0
  %15 = load i8, ptr %14, align 1, !tbaa !74
  %16 = sext i8 %15 to i32
  %17 = sext i32 %16 to i64
  %18 = getelementptr inbounds i32, ptr %12, i64 %17
  %19 = load i32, ptr %18, align 4, !tbaa !24
  store i32 %19, ptr %7, align 4, !tbaa !24
  %20 = load i32, ptr %7, align 4, !tbaa !24
  store i32 %20, ptr %8, align 4, !tbaa !24
  call void @llvm.lifetime.end.p0(i64 4, ptr %7) #9
  %21 = load i32, ptr %8, align 4, !tbaa !24
  %22 = trunc i32 %21 to i8
  %23 = load ptr, ptr %5, align 8, !tbaa !23
  %24 = getelementptr inbounds i8, ptr %23, i64 0
  store i8 %22, ptr %24, align 1, !tbaa !74
  %25 = load ptr, ptr %3, align 8, !tbaa !23
  %26 = call i32 (ptr, ptr, ...) @pmix_asprintf(ptr noundef %6, ptr noundef @.str.25, ptr noundef %25)
  %27 = load ptr, ptr %5, align 8, !tbaa !23
  %28 = load ptr, ptr %6, align 8, !tbaa !23
  %29 = load ptr, ptr %4, align 8, !tbaa !23
  call void @prte_info_out(ptr noundef %27, ptr noundef %28, ptr noundef %29)
  %30 = load ptr, ptr %5, align 8, !tbaa !23
  call void @free(ptr noundef %30) #9
  %31 = load ptr, ptr %6, align 8, !tbaa !23
  call void @free(ptr noundef %31) #9
  call void @llvm.lifetime.end.p0(i64 8, ptr %6) #9
  call void @llvm.lifetime.end.p0(i64 8, ptr %5) #9
  ret void
}