; Function Attrs: nounwind uwtable
define dso_local void @prte_info_show_path(ptr noundef %0, ptr noundef %1) local_unnamed_addr #0 {
  %3 = alloca ptr, align 8
  call void @llvm.lifetime.start.p0(i64 8, ptr nonnull %3) #8
  %4 = tail call noalias ptr @strdup(ptr noundef %0) #8
  %5 = tail call ptr @__ctype_toupper_loc() #11
  %6 = load ptr, ptr %5, align 8, !tbaa !51
  %7 = load i8, ptr %4, align 1, !tbaa !53
  %8 = sext i8 %7 to i64
  %9 = getelementptr inbounds i32, ptr %6, i64 %8
  %10 = load i32, ptr %9, align 4, !tbaa !38
  %11 = trunc i32 %10 to i8
  store i8 %11, ptr %4, align 1, !tbaa !53
  %12 = call i32 (ptr, ptr, ...) @pmix_asprintf(ptr noundef nonnull %3, ptr noundef nonnull @.str.25, ptr noundef %0) #8
  %13 = load ptr, ptr %3, align 8, !tbaa !21
  call void @prte_info_out(ptr noundef nonnull %4, ptr noundef %13, ptr noundef %1) #8
  call void @free(ptr noundef %4) #8
  %14 = load ptr, ptr %3, align 8, !tbaa !21
  call void @free(ptr noundef %14) #8
  call void @llvm.lifetime.end.p0(i64 8, ptr nonnull %3) #8
  ret void
}